Certificate:
    Data:
        Version: 3 (0x2)
        Serial Number:
            dc:83:fa:3c:1e:93:11:ae
        Signature Algorithm: sha1WithRSAEncryption
        Issuer: C=SL, ST=WP, O=WS, OU=C, CN=Kaushalye/emailAddress=kaus@wso2.com
        Validity
            Not Before: Dec  6 10:27:18 2006 GMT
            Not After : Dec  6 10:27:18 2007 GMT
        Subject: C=SL, ST=WP, L=Katubedda, O=WS, OU=C, CN=Aaa/emailAddress=aaa@ws.com
        Subject Public Key Info:
            Public Key Algorithm: rsaEncryption
            RSA Public Key: (1024 bit)
                Modulus (1024 bit):
                    00:c7:e1:d8:5c:ef:16:dd:5d:05:95:c8:16:7c:2f:
                    f5:13:15:b4:7a:0c:c8:fb:95:c8:03:db:3d:a8:41:
                    5d:70:75:ce:27:15:e2:a3:ef:87:24:38:5a:ee:72:
                    ea:70:c2:45:44:b5:dd:46:ca:51:60:15:ac:51:c3:
                    59:af:a8:17:85:af:cd:77:74:87:b2:4b:ab:13:e0:
                    00:82:2f:2a:d0:6b:12:7d:09:dc:52:dc:16:10:58:
                    46:38:74:c7:cf:98:96:e3:58:ce:8a:c8:31:fa:77:
                    6c:69:65:dc:a1:4c:38:e7:b0:9e:dc:64:06:ae:aa:
                    13:90:23:62:84:14:c0:9e:31
                Exponent: 65537 (0x10001)
        X509v3 extensions:
            X509v3 Basic Constraints: 
                CA:FALSE
            Netscape Comment: 
                OpenSSL Generated Certificate
            X509v3 Subject Key Identifier: 
                67:B7:BC:8C:22:29:1E:17:58:C6:43:91:A6:FB:82:E7:11:77:62:D6
            X509v3 Authority Key Identifier: 
                keyid:D7:27:10:74:4B:F8:2F:44:0B:BC:C7:9E:04:EF:22:5B:15:18:21:CC

    Signature Algorithm: sha1WithRSAEncryption
        4d:36:00:f0:51:10:44:72:73:5f:09:e4:fe:ad:f4:5b:a0:48:
        5f:50:50:d7:bb:bb:2a:98:b3:b7:d7:54:9e:57:6d:d2:cd:de:
        d5:d5:30:4d:c7:03:09:b4:7d:d8:72:17:f7:c6:e8:72:69:89:
        b9:bc:91:5a:a8:c8:9e:ee:76:0b:c2:ae:c2:65:59:94:5b:fe:
        a2:30:bf:aa:49:25:b1:42:bc:6d:c4:0a:99:aa:2d:17:14:d8:
        8d:19:cd:75:22:84:51:22:55:4e:e1:9e:50:1f:c6:c2:57:e1:
        4b:58:87:d5:73:c1:69:fd:25:dd:3d:50:ee:0e:9f:6a:9a:13:
        52:45
-----BEGIN CERTIFICATE-----
MIICzjCCAjegAwIBAgIJANyD+jwekxGuMA0GCSqGSIb3DQEBBQUAMGUxCzAJBgNV
BAYTAlNMMQswCQYDVQQIEwJXUDELMAkGA1UEChMCV1MxCjAIBgNVBAsTAUMxEjAQ
BgNVBAMTCUthdXNoYWx5ZTEcMBoGCSqGSIb3DQEJARYNa2F1c0B3c28yLmNvbTAe
Fw0wNjEyMDYxMDI3MThaFw0wNzEyMDYxMDI3MThaMHAxCzAJBgNVBAYTAlNMMQsw
CQYDVQQIEwJXUDESMBAGA1UEBxMJS2F0dWJlZGRhMQswCQYDVQQKEwJXUzEKMAgG
A1UECxMBQzEMMAoGA1UEAxMDQWFhMRkwFwYJKoZIhvcNAQkBFgphYWFAd3MuY29t
MIGfMA0GCSqGSIb3DQEBAQUAA4GNADCBiQKBgQDH4dhc7xbdXQWVyBZ8L/UTFbR6
DMj7lcgD2z2oQV1wdc4nFeKj74ckOFrucupwwkVEtd1GylFgFaxRw1mvqBeFr813
dIeyS6sT4ACCLyrQaxJ9CdxS3BYQWEY4dMfPmJbjWM6KyDH6d2xpZdyhTDjnsJ7c
ZAauqhOQI2KEFMCeMQIDAQABo3sweTAJBgNVHRMEAjAAMCwGCWCGSAGG+EIBDQQf
Fh1PcGVuU1NMIEdlbmVyYXRlZCBDZXJ0aWZpY2F0ZTAdBgNVHQ4EFgQUZ7e8jCIp
HhdYxkORpvuC5xF3YtYwHwYDVR0jBBgwFoAU1ycQdEv4L0QLvMeeBO8iWxUYIcww
DQYJKoZIhvcNAQEFBQADgYEATTYA8FEQRHJzXwnk/q30W6BIX1BQ17u7Kpizt9dU
nldt0s3e1dUwTccDCbR92HIX98bocmmJubyRWqjInu52C8KuwmVZlFv+ojC/qkkl
sUK8bcQKmaotFxTYjRnNdSKEUSJVTuGeUB/GwlfhS1iH1XPBaf0l3T1Q7g6fapoT
UkU=
-----END CERTIFICATE-----
