Certificate:
    Data:
        Version: 3 (0x2)
        Serial Number:
            dc:83:fa:3c:1e:93:11:af
        Signature Algorithm: sha1WithRSAEncryption
        Issuer: C=SL, ST=WP, O=WS, OU=C, CN=Kaushalye/emailAddress=kaus@wso2.com
        Validity
            Not Before: Dec  6 12:00:18 2006 GMT
            Not After : Dec  6 12:00:18 2007 GMT
        Subject: C=SE, ST=Gotaland, L=Goteborg, O=SKF, OU=ERC, CN=Kau/emailAddress=kau@skf.com
        Subject Public Key Info:
            Public Key Algorithm: rsaEncryption
            RSA Public Key: (1024 bit)
                Modulus (1024 bit):
                    00:ad:b4:27:ce:8c:a4:bd:79:a8:43:5e:71:f1:d9:
                    fc:ae:df:ce:1b:e8:af:b8:d8:b7:53:4a:1e:d4:ea:
                    6a:48:db:f5:6a:5b:73:3f:a7:d8:76:88:ca:9b:e8:
                    2b:69:ad:0f:73:a4:24:c3:f3:eb:e9:ca:31:4d:d3:
                    3e:56:4c:59:c7:f9:f7:f0:b2:ac:20:5c:1f:1f:d7:
                    4e:21:78:76:b6:f3:2f:53:0d:1f:cd:e0:9a:4f:9b:
                    49:90:c0:ed:3d:d4:9a:b9:a2:36:c8:b6:bc:5f:47:
                    f5:bc:16:32:6f:7d:d3:43:71:7d:4e:a8:4a:58:66:
                    dc:0c:f1:0b:bf:25:c0:0f:3d
                Exponent: 65537 (0x10001)
        X509v3 extensions:
            X509v3 Basic Constraints: 
                CA:FALSE
            Netscape Comment: 
                OpenSSL Generated Certificate
            X509v3 Subject Key Identifier: 
                74:38:2A:68:BC:BA:5C:CD:C1:57:3A:E6:2F:EF:D6:7E:8D:A6:C3:B0
            X509v3 Authority Key Identifier: 
                keyid:D7:27:10:74:4B:F8:2F:44:0B:BC:C7:9E:04:EF:22:5B:15:18:21:CC

    Signature Algorithm: sha1WithRSAEncryption
        03:86:24:83:9d:d9:1d:48:51:25:c1:99:c7:ef:d7:88:f9:73:
        d2:e2:ae:a7:c4:85:e8:bd:84:d8:73:f4:2b:fd:78:61:ba:ba:
        6c:ed:34:83:c3:79:5e:50:6a:cc:80:a2:22:e0:9a:8a:32:b5:
        a1:a8:b8:a4:1d:5a:ea:13:81:a9:a2:e5:fb:6a:99:24:c8:ff:
        a8:5d:90:96:7a:f4:34:e6:c5:97:23:69:46:81:b4:05:4f:4e:
        0d:69:85:8d:d6:bf:41:07:83:69:b6:b2:5e:9f:0a:e4:bb:fd:
        b1:d8:af:9a:34:5a:61:ea:41:57:72:7b:05:3e:4f:ea:b4:21:
        b4:b1
-----BEGIN CERTIFICATE-----
MIIC1zCCAkCgAwIBAgIJANyD+jwekxGvMA0GCSqGSIb3DQEBBQUAMGUxCzAJBgNV
BAYTAlNMMQswCQYDVQQIEwJXUDELMAkGA1UEChMCV1MxCjAIBgNVBAsTAUMxEjAQ
BgNVBAMTCUthdXNoYWx5ZTEcMBoGCSqGSIb3DQEJARYNa2F1c0B3c28yLmNvbTAe
Fw0wNjEyMDYxMjAwMThaFw0wNzEyMDYxMjAwMThaMHkxCzAJBgNVBAYTAlNFMREw
DwYDVQQIEwhHb3RhbGFuZDERMA8GA1UEBxMIR290ZWJvcmcxDDAKBgNVBAoTA1NL
RjEMMAoGA1UECxMDRVJDMQwwCgYDVQQDEwNLYXUxGjAYBgkqhkiG9w0BCQEWC2th
dUBza2YuY29tMIGfMA0GCSqGSIb3DQEBAQUAA4GNADCBiQKBgQCttCfOjKS9eahD
XnHx2fyu384b6K+42LdTSh7U6mpI2/VqW3M/p9h2iMqb6CtprQ9zpCTD8+vpyjFN
0z5WTFnH+ffwsqwgXB8f104heHa28y9TDR/N4JpPm0mQwO091Jq5ojbItrxfR/W8
FjJvfdNDcX1OqEpYZtwM8Qu/JcAPPQIDAQABo3sweTAJBgNVHRMEAjAAMCwGCWCG
SAGG+EIBDQQfFh1PcGVuU1NMIEdlbmVyYXRlZCBDZXJ0aWZpY2F0ZTAdBgNVHQ4E
FgQUdDgqaLy6XM3BVzrmL+/Wfo2mw7AwHwYDVR0jBBgwFoAU1ycQdEv4L0QLvMee
BO8iWxUYIcwwDQYJKoZIhvcNAQEFBQADgYEAA4Ykg53ZHUhRJcGZx+/XiPlz0uKu
p8SF6L2E2HP0K/14Ybq6bO00g8N5XlBqzICiIuCaijK1oai4pB1a6hOBqaLl+2qZ
JMj/qF2Qlnr0NObFlyNpRoG0BU9ODWmFjda/QQeDabayXp8K5Lv9sdivmjRaYepB
V3J7BT5P6rQhtLE=
-----END CERTIFICATE-----
